target datalayout = "e-m:e-p270:32:32-p271:32:32-p272:64:64-i64:64-i128:128-f80:128-n8:16:32:64-S128"
target triple = "x86_64-unknown-linux-gnu"

%"struct.node::AssertionInfo" = type { ptr, ptr, ptr }
%"class.node::MutexBase" = type { %union.pthread_mutex_t }
%union.pthread_mutex_t = type { %struct.__pthread_mutex_s }
%struct.__pthread_mutex_s = type { i32, i32, i32, i32, i32, i16, i16, %struct.__pthread_internal_list }
%struct.__pthread_internal_list = type { ptr, ptr }
%"struct.std::__detail::_Hash_node_base" = type { ptr }
%"struct.std::__detail::_Prime_rehash_policy" = type { float, i64 }
%"class.std::__shared_count" = type { ptr }
%"class.std::shared_ptr.87" = type { %"class.std::__shared_ptr.88" }
%"class.std::__shared_ptr.88" = type { ptr, %"class.std::__shared_count" }
%"class.node::NodePlatform" = type <{ %"class.node::MultiIsolatePlatform", %"class.node::MutexBase", %"class.std::unordered_map", ptr, ptr, %"class.std::shared_ptr.87", i8, [7 x i8] }>
%"class.node::MultiIsolatePlatform" = type { %"class.v8::Platform" }
%"class.v8::Platform" = type { ptr }
%"class.std::unordered_map" = type { %"class.std::_Hashtable.68" }
%"class.std::_Hashtable.68" = type { ptr, i64, %"struct.std::__detail::_Hash_node_base", i64, %"struct.std::__detail::_Prime_rehash_policy", ptr }

@_ZZN4node12NodePlatform20GetTracingControllerEvE4args = internal constant %"struct.node::AssertionInfo" { ptr @.str.34, ptr @.str.35, ptr @.str.36 }, align 8

; Function Attrs: mustprogress nounwind uwtable
define dso_local noundef ptr @_ZN4node12NodePlatform20GetTracingControllerEv(ptr noundef nonnull align 8 dereferenceable(137) %this) unnamed_addr #4 align 2 {
entry:
  %this.addr = alloca ptr, align 8
  store ptr %this, ptr %this.addr, align 8
  %this1 = load ptr, ptr %this.addr, align 8
  br label %do.body

do.body:                                          ; preds = %entry
  %tracing_controller_ = getelementptr inbounds %"class.node::NodePlatform", ptr %this1, i32 0, i32 3
  %0 = load ptr, ptr %tracing_controller_, align 8
  %cmp = icmp ne ptr %0, null
  %lnot = xor i1 %cmp, true
  %lnot2 = xor i1 %lnot, true
  %lnot3 = xor i1 %lnot2, true
  br i1 %lnot3, label %if.then, label %if.end

if.then:                                          ; preds = %do.body
  br label %do.body4

do.body4:                                         ; preds = %if.then
  call void @_ZN4node6AssertERKNS_13AssertionInfoE(ptr noundef nonnull align 8 dereferenceable(24) @_ZZN4node12NodePlatform20GetTracingControllerEvE4args)
  call void @abort() #15
  unreachable

do.end:                                           ; No predecessors!
  br label %if.end

if.end:                                           ; preds = %do.end, %do.body
  br label %do.end5

do.end5:                                          ; preds = %if.end
  %tracing_controller_6 = getelementptr inbounds %"class.node::NodePlatform", ptr %this1, i32 0, i32 3
  %1 = load ptr, ptr %tracing_controller_6, align 8
  ret ptr %1
}