; Function Attrs: mustprogress nounwind uwtable
define dso_local noundef ptr @_ZN4node12NodePlatform20GetTracingControllerEv(ptr nocapture noundef nonnull readonly align 8 dereferenceable(137) %this) unnamed_addr #3 align 2 {
entry:
  %tracing_controller_ = getelementptr inbounds i8, ptr %this, i64 104
  %0 = load ptr, ptr %tracing_controller_, align 8
  %cmp.not = icmp eq ptr %0, null
  br i1 %cmp.not, label %do.body4, label %do.end5

do.body4:                                         ; preds = %entry
  tail call void @_ZN4node6AssertERKNS_13AssertionInfoE(ptr noundef nonnull align 8 dereferenceable(24) @_ZZN4node12NodePlatform20GetTracingControllerEvE4args) #23
  tail call void @abort() #24
  unreachable

do.end5:                                          ; preds = %entry
  ret ptr %0
}